; Function Attrs: nounwind uwtable
define internal i32 @activate(ptr noundef readonly captures(none) %0) #1 {
  %2 = getelementptr inbounds nuw i8, ptr %0, i64 56
  %3 = load ptr, ptr %2, align 8, !tbaa !26
  %4 = load ptr, ptr %3, align 8, !tbaa !27
  %5 = getelementptr inbounds nuw i8, ptr %0, i64 72
  %6 = load ptr, ptr %5, align 8, !tbaa !4
  %7 = tail call i32 @ff_outlink_frame_wanted(ptr noundef %4) #8
  %.not = icmp eq i32 %7, 0
  br i1 %.not, label %36, label %8

8:                                                ; preds = %1
  %9 = getelementptr inbounds nuw i8, ptr %6, i64 16
  %10 = load i32, ptr %9, align 8, !tbaa !29
  %11 = sext i32 %10 to i64
  %12 = getelementptr inbounds nuw i8, ptr %6, i64 12
  %13 = load i32, ptr %12, align 4, !tbaa !20
  %14 = sext i32 %13 to i64
  %15 = getelementptr inbounds nuw i8, ptr %6, i64 32
  %16 = load i64, ptr %15, align 8, !tbaa !30
  %17 = sub nsw i64 %14, %16
  %18 = tail call i64 @llvm.smin.i64(i64 %17, i64 %11)
  %19 = trunc i64 %18 to i32
  %20 = icmp slt i32 %19, 1
  br i1 %20, label %21, label %22

21:                                               ; preds = %8
  tail call void @ff_avfilter_link_set_in_status(ptr noundef %4, i32 noundef -541478725, i64 noundef %16) #8
  br label %36

22:                                               ; preds = %8
  %23 = tail call ptr @ff_get_audio_buffer(ptr noundef %4, i32 noundef %19) #8
  %.not28 = icmp eq ptr %23, null
  br i1 %.not28, label %36, label %24

24:                                               ; preds = %22
  %25 = load ptr, ptr %23, align 8, !tbaa !31
  %26 = getelementptr inbounds nuw i8, ptr %6, i64 24
  %27 = load ptr, ptr %26, align 8, !tbaa !32
  %28 = load i64, ptr %15, align 8, !tbaa !30
  %29 = getelementptr inbounds float, ptr %27, i64 %28
  %30 = and i64 %18, 2147483647
  %31 = shl nuw nsw i64 %30, 2
  tail call void @llvm.memcpy.p0.p0.i64(ptr align 1 %25, ptr align 4 %29, i64 %31, i1 false)
  %32 = load i64, ptr %15, align 8, !tbaa !30
  %33 = getelementptr inbounds nuw i8, ptr %23, i64 136
  store i64 %32, ptr %33, align 8, !tbaa !33
  %34 = add nsw i64 %32, %30
  store i64 %34, ptr %15, align 8, !tbaa !30
  %35 = tail call i32 @ff_filter_frame(ptr noundef %4, ptr noundef nonnull %23) #8
  br label %36

36:                                               ; preds = %22, %1, %24, %21
  %.0 = phi i32 [ 0, %21 ], [ %35, %24 ], [ -1497649742, %1 ], [ -12, %22 ]
  ret i32 %.0
}